; Function Attrs: mustprogress uwtable
define hidden void @_ZN6spacer14farkas_learner19combine_constraintsEjPKP3appPK8rationalR7obj_refI4expr11ast_managerE(ptr nocapture noundef nonnull readonly align 1 dereferenceable(1) %this, i32 noundef %n, ptr nocapture noundef readonly %lits, ptr noundef %coeffs, ptr nocapture noundef nonnull align 8 dereferenceable(16) %res) local_unnamed_addr #3 align 2 personality ptr @__gxx_personality_v0 {
entry:
  %res_c = alloca %"class.smt::farkas_util", align 8
  %ref.tmp = alloca %class.obj_ref, align 8
  %m_manager.i = getelementptr inbounds i8, ptr %res, i64 8
  %0 = load ptr, ptr %m_manager.i, align 8
  call void @_ZN3smt11farkas_utilC1ER11ast_manager(ptr noundef nonnull align 8 dereferenceable(128) %res_c, ptr noundef nonnull align 8 dereferenceable(976) %0)
  %1 = load i8, ptr %this, align 1
  %2 = and i8 %1, 1
  %m_split_literals.i = getelementptr inbounds i8, ptr %res_c, i64 80
  store i8 %2, ptr %m_split_literals.i, align 8
  %cmp8.not = icmp eq i32 %n, 0
  br i1 %cmp8.not, label %for.end, label %for.body.preheader

for.body.preheader:                               ; preds = %entry
  %wide.trip.count = zext i32 %n to i64
  br label %for.body

for.body:                                         ; preds = %for.body.preheader, %for.inc
  %indvars.iv = phi i64 [ 0, %for.body.preheader ], [ %indvars.iv.next, %for.inc ]
  %arrayidx = getelementptr inbounds %class.rational, ptr %coeffs, i64 %indvars.iv
  %arrayidx3 = getelementptr inbounds ptr, ptr %lits, i64 %indvars.iv
  %3 = load ptr, ptr %arrayidx3, align 8
  %call5 = invoke noundef zeroext i1 @_ZN3smt11farkas_util3addERK8rationalP3app(ptr noundef nonnull align 8 dereferenceable(128) %res_c, ptr noundef nonnull align 8 dereferenceable(32) %arrayidx, ptr noundef %3)
          to label %for.inc unwind label %lpad.loopexit

for.inc:                                          ; preds = %for.body
  %indvars.iv.next = add nuw nsw i64 %indvars.iv, 1
  %exitcond.not = icmp eq i64 %indvars.iv.next, %wide.trip.count
  br i1 %exitcond.not, label %for.end, label %for.body, !llvm.loop !4

lpad.loopexit:                                    ; preds = %for.body
  %lpad.loopexit6 = landingpad { ptr, i32 }
          cleanup
  br label %lpad

lpad.loopexit.split-lp:                           ; preds = %for.end
  %lpad.loopexit.split-lp7 = landingpad { ptr, i32 }
          cleanup
  br label %lpad

lpad:                                             ; preds = %lpad.loopexit.split-lp, %lpad.loopexit
  %lpad.phi = phi { ptr, i32 } [ %lpad.loopexit6, %lpad.loopexit ], [ %lpad.loopexit.split-lp7, %lpad.loopexit.split-lp ]
  call void @_ZN3smt11farkas_utilD2Ev(ptr noundef nonnull align 8 dereferenceable(128) %res_c) #15
  resume { ptr, i32 } %lpad.phi

for.end:                                          ; preds = %for.inc, %entry
  invoke void @_ZN3smt11farkas_util3getEv(ptr nonnull sret(%class.obj_ref) align 8 %ref.tmp, ptr noundef nonnull align 8 dereferenceable(128) %res_c)
          to label %invoke.cont6 unwind label %lpad.loopexit.split-lp

invoke.cont6:                                     ; preds = %for.end
  %4 = load ptr, ptr %res, align 8
  %5 = load ptr, ptr %ref.tmp, align 8
  store ptr %5, ptr %res, align 8
  store ptr %4, ptr %ref.tmp, align 8
  %tobool.not.i.i.i = icmp eq ptr %4, null
  br i1 %tobool.not.i.i.i, label %_ZN7obj_refI4expr11ast_managerED2Ev.exit, label %if.then.i.i.i.i

if.then.i.i.i.i:                                  ; preds = %invoke.cont6
  %m_manager.i.i.i = getelementptr inbounds i8, ptr %ref.tmp, i64 8
  %6 = load ptr, ptr %m_manager.i.i.i, align 8
  %m_ref_count.i.i.i.i.i = getelementptr inbounds i8, ptr %4, i64 8
  %7 = load i32, ptr %m_ref_count.i.i.i.i.i, align 4
  %dec.i.i.i.i.i = add i32 %7, -1
  store i32 %dec.i.i.i.i.i, ptr %m_ref_count.i.i.i.i.i, align 4
  %cmp.i.i.i.i = icmp eq i32 %dec.i.i.i.i.i, 0
  br i1 %cmp.i.i.i.i, label %if.then2.i.i.i.i, label %_ZN7obj_refI4expr11ast_managerED2Ev.exit

if.then2.i.i.i.i:                                 ; preds = %if.then.i.i.i.i
  invoke void @_ZN11ast_manager11delete_nodeEP3ast(ptr noundef nonnull align 8 dereferenceable(976) %6, ptr noundef nonnull %4)
          to label %_ZN7obj_refI4expr11ast_managerED2Ev.exit unwind label %terminate.lpad.i

terminate.lpad.i:                                 ; preds = %if.then2.i.i.i.i
  %8 = landingpad { ptr, i32 }
          catch ptr null
  %9 = extractvalue { ptr, i32 } %8, 0
  call void @__clang_call_terminate(ptr %9) #16
  unreachable

_ZN7obj_refI4expr11ast_managerED2Ev.exit:         ; preds = %if.then2.i.i.i.i, %if.then.i.i.i.i, %invoke.cont6
  store ptr null, ptr %ref.tmp, align 8
  call void @_ZN3smt11farkas_utilD2Ev(ptr noundef nonnull align 8 dereferenceable(128) %res_c) #15
  ret void
}